target datalayout = "e-m:e-p270:32:32-p271:32:32-p272:64:64-i64:64-i128:128-f80:128-n8:16:32:64-S128"
target triple = "x86_64-unknown-linux-gnu"

%"class.openvdb::v11_0::math::Vec3" = type { %"class.openvdb::v11_0::math::Tuple" }
%"class.openvdb::v11_0::math::Tuple" = type { [3 x double] }
%"class.openvdb::v11_0::math::BBox" = type { %"class.openvdb::v11_0::math::Vec3", %"class.openvdb::v11_0::math::Vec3" }
%"class.openvdb::v11_0::math::Coord" = type { %"struct.std::array" }
%"struct.std::array" = type { [3 x i32] }
%"class.openvdb::v11_0::math::CoordBBox" = type { %"class.openvdb::v11_0::math::Coord", %"class.openvdb::v11_0::math::Coord" }

; Function Attrs: mustprogress nounwind uwtable
define linkonce_odr noundef double @_ZN7openvdb5v11_04math9RoundDownEd(double noundef %x) #5 comdat {
entry:
  %x.addr = alloca double, align 8
  store double %x, ptr %x.addr, align 8
  %0 = load double, ptr %x.addr, align 8
  %1 = call double @llvm.floor.f64(double %0)
  ret double %1
}

; Function Attrs: mustprogress nounwind uwtable
define linkonce_odr noundef double @_ZNK7openvdb5v11_04math5TupleILi3EdEixIiTnNSt9enable_ifIXsr3std11is_integralIT_EE5valueEbE4typeELb1EEEdS6_(ptr noundef nonnull align 8 dereferenceable(24) %this, i32 noundef %i) #5 comdat align 2 {
entry:
  %this.addr = alloca ptr, align 8
  %i.addr = alloca i32, align 4
  store ptr %this, ptr %this.addr, align 8
  store i32 %i, ptr %i.addr, align 4
  %this1 = load ptr, ptr %this.addr, align 8
  %mm = getelementptr inbounds %"class.openvdb::v11_0::math::Tuple", ptr %this1, i32 0, i32 0
  %0 = load i32, ptr %i.addr, align 4
  %idxprom = sext i32 %0 to i64
  %arrayidx = getelementptr inbounds [3 x double], ptr %mm, i64 0, i64 %idxprom
  %1 = load double, ptr %arrayidx, align 8
  ret double %1
}

; Function Attrs: mustprogress nounwind uwtable
define linkonce_odr void @_ZN7openvdb5v11_04math5CoordC2Eiii(ptr noundef nonnull align 4 dereferenceable(12) %this, i32 noundef %x, i32 noundef %y, i32 noundef %z) unnamed_addr #5 comdat align 2 {
entry:
  %this.addr = alloca ptr, align 8
  %x.addr = alloca i32, align 4
  %y.addr = alloca i32, align 4
  %z.addr = alloca i32, align 4
  store ptr %this, ptr %this.addr, align 8
  store i32 %x, ptr %x.addr, align 4
  store i32 %y, ptr %y.addr, align 4
  store i32 %z, ptr %z.addr, align 4
  %this1 = load ptr, ptr %this.addr, align 8
  %mVec = getelementptr inbounds %"class.openvdb::v11_0::math::Coord", ptr %this1, i32 0, i32 0
  %_M_elems = getelementptr inbounds %"struct.std::array", ptr %mVec, i32 0, i32 0
  %arrayinit.begin = getelementptr inbounds [3 x i32], ptr %_M_elems, i64 0, i64 0
  %0 = load i32, ptr %x.addr, align 4
  store i32 %0, ptr %arrayinit.begin, align 4
  %arrayinit.element = getelementptr inbounds i32, ptr %arrayinit.begin, i64 1
  %1 = load i32, ptr %y.addr, align 4
  store i32 %1, ptr %arrayinit.element, align 4
  %arrayinit.element2 = getelementptr inbounds i32, ptr %arrayinit.element, i64 1
  %2 = load i32, ptr %z.addr, align 4
  store i32 %2, ptr %arrayinit.element2, align 4
  ret void
}

; Function Attrs: mustprogress uwtable
define linkonce_odr noundef double @_ZN7openvdb5v11_04math5RoundEd(double noundef %x) #4 comdat {
entry:
  %x.addr = alloca double, align 8
  store double %x, ptr %x.addr, align 8
  %0 = load double, ptr %x.addr, align 8
  %add = fadd double %0, 5.000000e-01
  %call = call noundef double @_ZN7openvdb5v11_04math9RoundDownEd(double noundef %add)
  ret double %call
}

; Function Attrs: mustprogress uwtable
define linkonce_odr noundef double @_ZNK7openvdb5v11_04math5TupleILi3EdEixEi(ptr noundef nonnull align 8 dereferenceable(24) %this, i32 noundef %i) #4 comdat align 2 {
entry:
  %this.addr = alloca ptr, align 8
  %i.addr = alloca i32, align 4
  store ptr %this, ptr %this.addr, align 8
  store i32 %i, ptr %i.addr, align 4
  %this1 = load ptr, ptr %this.addr, align 8
  %0 = load i32, ptr %i.addr, align 4
  %call = call noundef double @_ZNK7openvdb5v11_04math5TupleILi3EdEixIiTnNSt9enable_ifIXsr3std11is_integralIT_EE5valueEbE4typeELb1EEEdS6_(ptr noundef nonnull align 8 dereferenceable(24) %this1, i32 noundef %0)
  ret double %call
}

; Function Attrs: mustprogress nounwind uwtable
define linkonce_odr void @_ZN7openvdb5v11_04math9CoordBBoxC2ERKNS1_5CoordES5_(ptr noundef nonnull align 4 dereferenceable(24) %this, ptr noundef nonnull align 4 dereferenceable(12) %min, ptr noundef nonnull align 4 dereferenceable(12) %max) unnamed_addr #5 comdat align 2 {
entry:
  %this.addr = alloca ptr, align 8
  %min.addr = alloca ptr, align 8
  %max.addr = alloca ptr, align 8
  store ptr %this, ptr %this.addr, align 8
  store ptr %min, ptr %min.addr, align 8
  store ptr %max, ptr %max.addr, align 8
  %this1 = load ptr, ptr %this.addr, align 8
  %mMin = getelementptr inbounds %"class.openvdb::v11_0::math::CoordBBox", ptr %this1, i32 0, i32 0
  %0 = load ptr, ptr %min.addr, align 8
  call void @llvm.memcpy.p0.p0.i64(ptr align 4 %mMin, ptr align 4 %0, i64 12, i1 false)
  %mMax = getelementptr inbounds %"class.openvdb::v11_0::math::CoordBBox", ptr %this1, i32 0, i32 1
  %1 = load ptr, ptr %max.addr, align 8
  call void @llvm.memcpy.p0.p0.i64(ptr align 4 %mMax, ptr align 4 %1, i64 12, i1 false)
  ret void
}

; Function Attrs: mustprogress uwtable
define linkonce_odr { i64, i32 } @_ZN7openvdb5v11_04math5Coord5roundIdEES2_RKNS1_4Vec3IT_EE(ptr noundef nonnull align 8 dereferenceable(24) %xyz) #4 comdat align 2 {
entry:
  %retval = alloca %"class.openvdb::v11_0::math::Coord", align 4
  %xyz.addr = alloca ptr, align 8
  %coerce.dive8.coerce = alloca { i64, i32 }, align 8
  store ptr %xyz, ptr %xyz.addr, align 8
  %0 = load ptr, ptr %xyz.addr, align 8
  %call = call noundef double @_ZNK7openvdb5v11_04math5TupleILi3EdEixEi(ptr noundef nonnull align 8 dereferenceable(24) %0, i32 noundef 0)
  %call1 = call noundef double @_ZN7openvdb5v11_04math5RoundEd(double noundef %call)
  %conv = fptosi double %call1 to i32
  %1 = load ptr, ptr %xyz.addr, align 8
  %call2 = call noundef double @_ZNK7openvdb5v11_04math5TupleILi3EdEixEi(ptr noundef nonnull align 8 dereferenceable(24) %1, i32 noundef 1)
  %call3 = call noundef double @_ZN7openvdb5v11_04math5RoundEd(double noundef %call2)
  %conv4 = fptosi double %call3 to i32
  %2 = load ptr, ptr %xyz.addr, align 8
  %call5 = call noundef double @_ZNK7openvdb5v11_04math5TupleILi3EdEixEi(ptr noundef nonnull align 8 dereferenceable(24) %2, i32 noundef 2)
  %call6 = call noundef double @_ZN7openvdb5v11_04math5RoundEd(double noundef %call5)
  %conv7 = fptosi double %call6 to i32
  call void @_ZN7openvdb5v11_04math5CoordC2Eiii(ptr noundef nonnull align 4 dereferenceable(12) %retval, i32 noundef %conv, i32 noundef %conv4, i32 noundef %conv7)
  %coerce.dive = getelementptr inbounds %"class.openvdb::v11_0::math::Coord", ptr %retval, i32 0, i32 0
  %coerce.dive8 = getelementptr inbounds %"struct.std::array", ptr %coerce.dive, i32 0, i32 0
  call void @llvm.memcpy.p0.p0.i64(ptr align 8 %coerce.dive8.coerce, ptr align 4 %coerce.dive8, i64 12, i1 false)
  %3 = load { i64, i32 }, ptr %coerce.dive8.coerce, align 8
  ret { i64, i32 } %3
}

; Function Attrs: mustprogress nounwind uwtable
define linkonce_odr noundef nonnull align 8 dereferenceable(24) ptr @_ZNK7openvdb5v11_04math4BBoxINS1_4Vec3IdEEE3maxEv(ptr noundef nonnull align 8 dereferenceable(48) %this) #5 comdat align 2 {
entry:
  %this.addr = alloca ptr, align 8
  store ptr %this, ptr %this.addr, align 8
  %this1 = load ptr, ptr %this.addr, align 8
  %mMax = getelementptr inbounds %"class.openvdb::v11_0::math::BBox", ptr %this1, i32 0, i32 1
  ret ptr %mMax
}

; Function Attrs: mustprogress nounwind uwtable
define linkonce_odr noundef nonnull align 8 dereferenceable(24) ptr @_ZNK7openvdb5v11_04math4BBoxINS1_4Vec3IdEEE3minEv(ptr noundef nonnull align 8 dereferenceable(48) %this) #5 comdat align 2 {
entry:
  %this.addr = alloca ptr, align 8
  store ptr %this, ptr %this.addr, align 8
  %this1 = load ptr, ptr %this.addr, align 8
  %mMin = getelementptr inbounds %"class.openvdb::v11_0::math::BBox", ptr %this1, i32 0, i32 0
  ret ptr %mMin
}

; Function Attrs: mustprogress uwtable
define void @_ZNK7openvdb5v11_04math9Transform24worldToIndexCellCenteredERKNS1_4BBoxINS1_4Vec3IdEEEE(ptr noalias sret(%"class.openvdb::v11_0::math::CoordBBox") align 4 %agg.result, ptr noundef nonnull align 8 dereferenceable(16) %this, ptr noundef nonnull align 8 dereferenceable(48) %worldBBox) #4 align 2 {
entry:
  %this.addr = alloca ptr, align 8
  %worldBBox.addr = alloca ptr, align 8
  %indexMin = alloca %"class.openvdb::v11_0::math::Vec3", align 8
  %indexMax = alloca %"class.openvdb::v11_0::math::Vec3", align 8
  %ref.tmp = alloca %"class.openvdb::v11_0::math::Coord", align 4
  %tmp.coerce = alloca { i64, i32 }, align 8
  %ref.tmp5 = alloca %"class.openvdb::v11_0::math::Coord", align 4
  %tmp.coerce9 = alloca { i64, i32 }, align 8
  store ptr %this, ptr %this.addr, align 8
  store ptr %worldBBox, ptr %worldBBox.addr, align 8
  %this1 = load ptr, ptr %this.addr, align 8
  %0 = load ptr, ptr %worldBBox.addr, align 8
  %call = call noundef nonnull align 8 dereferenceable(24) ptr @_ZNK7openvdb5v11_04math4BBoxINS1_4Vec3IdEEE3minEv(ptr noundef nonnull align 8 dereferenceable(48) %0)
  %1 = load ptr, ptr %worldBBox.addr, align 8
  %call2 = call noundef nonnull align 8 dereferenceable(24) ptr @_ZNK7openvdb5v11_04math4BBoxINS1_4Vec3IdEEE3maxEv(ptr noundef nonnull align 8 dereferenceable(48) %1)
  call void @_ZN7openvdb5v11_04math15calculateBoundsERKNS1_9TransformERKNS1_4Vec3IdEES8_RS6_S9_(ptr noundef nonnull align 8 dereferenceable(16) %this1, ptr noundef nonnull align 8 dereferenceable(24) %call, ptr noundef nonnull align 8 dereferenceable(24) %call2, ptr noundef nonnull align 8 dereferenceable(24) %indexMin, ptr noundef nonnull align 8 dereferenceable(24) %indexMax)
  %call3 = call { i64, i32 } @_ZN7openvdb5v11_04math5Coord5roundIdEES2_RKNS1_4Vec3IT_EE(ptr noundef nonnull align 8 dereferenceable(24) %indexMin)
  %coerce.dive = getelementptr inbounds %"class.openvdb::v11_0::math::Coord", ptr %ref.tmp, i32 0, i32 0
  %coerce.dive4 = getelementptr inbounds %"struct.std::array", ptr %coerce.dive, i32 0, i32 0
  store { i64, i32 } %call3, ptr %tmp.coerce, align 8
  call void @llvm.memcpy.p0.p0.i64(ptr align 4 %coerce.dive4, ptr align 8 %tmp.coerce, i64 12, i1 false)
  %call6 = call { i64, i32 } @_ZN7openvdb5v11_04math5Coord5roundIdEES2_RKNS1_4Vec3IT_EE(ptr noundef nonnull align 8 dereferenceable(24) %indexMax)
  %coerce.dive7 = getelementptr inbounds %"class.openvdb::v11_0::math::Coord", ptr %ref.tmp5, i32 0, i32 0
  %coerce.dive8 = getelementptr inbounds %"struct.std::array", ptr %coerce.dive7, i32 0, i32 0
  store { i64, i32 } %call6, ptr %tmp.coerce9, align 8
  call void @llvm.memcpy.p0.p0.i64(ptr align 4 %coerce.dive8, ptr align 8 %tmp.coerce9, i64 12, i1 false)
  call void @_ZN7openvdb5v11_04math9CoordBBoxC2ERKNS1_5CoordES5_(ptr noundef nonnull align 4 dereferenceable(24) %agg.result, ptr noundef nonnull align 4 dereferenceable(12) %ref.tmp, ptr noundef nonnull align 4 dereferenceable(12) %ref.tmp5)
  ret void
}