; Function Attrs: mustprogress uwtable
define void @_ZNK7openvdb5v11_04math9Transform24worldToIndexCellCenteredERKNS1_4BBoxINS1_4Vec3IdEEEE(ptr noalias nocapture writeonly sret(%"class.openvdb::v11_0::math::CoordBBox") align 4 %agg.result, ptr nocapture noundef nonnull readonly align 8 dereferenceable(16) %this, ptr nocapture noundef nonnull readonly align 8 dereferenceable(48) %worldBBox) local_unnamed_addr #3 align 2 {
entry:
  %indexMin = alloca %"class.openvdb::v11_0::math::Vec3", align 8
  %indexMax = alloca %"class.openvdb::v11_0::math::Vec3", align 8
  %mMax.i = getelementptr inbounds i8, ptr %worldBBox, i64 24
  call void @_ZN7openvdb5v11_04math15calculateBoundsERKNS1_9TransformERKNS1_4Vec3IdEES8_RS6_S9_(ptr noundef nonnull align 8 dereferenceable(16) %this, ptr noundef nonnull align 8 dereferenceable(24) %worldBBox, ptr noundef nonnull align 8 dereferenceable(24) %mMax.i, ptr noundef nonnull align 8 dereferenceable(24) %indexMin, ptr noundef nonnull align 8 dereferenceable(24) %indexMax)
  %0 = load double, ptr %indexMin, align 8
  %add.i.i = fadd double %0, 5.000000e-01
  %1 = tail call noundef double @llvm.floor.f64(double %add.i.i)
  %conv.i = fptosi double %1 to i32
  %arrayidx.i.i.i = getelementptr inbounds i8, ptr %indexMin, i64 8
  %2 = load double, ptr %arrayidx.i.i.i, align 8
  %add.i3.i = fadd double %2, 5.000000e-01
  %3 = tail call noundef double @llvm.floor.f64(double %add.i3.i)
  %conv4.i = fptosi double %3 to i32
  %arrayidx.i.i4.i = getelementptr inbounds i8, ptr %indexMin, i64 16
  %4 = load double, ptr %arrayidx.i.i4.i, align 8
  %add.i5.i = fadd double %4, 5.000000e-01
  %5 = tail call noundef double @llvm.floor.f64(double %add.i5.i)
  %conv7.i = fptosi double %5 to i32
  %retval.sroa.2.0.insert.ext.i = zext i32 %conv4.i to i64
  %retval.sroa.2.0.insert.shift.i = shl nuw i64 %retval.sroa.2.0.insert.ext.i, 32
  %retval.sroa.0.0.insert.ext.i = zext i32 %conv.i to i64
  %retval.sroa.0.0.insert.insert.i = or disjoint i64 %retval.sroa.2.0.insert.shift.i, %retval.sroa.0.0.insert.ext.i
  %6 = load double, ptr %indexMax, align 8
  %add.i.i2 = fadd double %6, 5.000000e-01
  %7 = tail call noundef double @llvm.floor.f64(double %add.i.i2)
  %conv.i3 = fptosi double %7 to i32
  %arrayidx.i.i.i4 = getelementptr inbounds i8, ptr %indexMax, i64 8
  %8 = load double, ptr %arrayidx.i.i.i4, align 8
  %add.i3.i5 = fadd double %8, 5.000000e-01
  %9 = tail call noundef double @llvm.floor.f64(double %add.i3.i5)
  %conv4.i6 = fptosi double %9 to i32
  %arrayidx.i.i4.i7 = getelementptr inbounds i8, ptr %indexMax, i64 16
  %10 = load double, ptr %arrayidx.i.i4.i7, align 8
  %add.i5.i8 = fadd double %10, 5.000000e-01
  %11 = tail call noundef double @llvm.floor.f64(double %add.i5.i8)
  %conv7.i9 = fptosi double %11 to i32
  %retval.sroa.2.0.insert.ext.i10 = zext i32 %conv4.i6 to i64
  %retval.sroa.2.0.insert.shift.i11 = shl nuw i64 %retval.sroa.2.0.insert.ext.i10, 32
  %retval.sroa.0.0.insert.ext.i12 = zext i32 %conv.i3 to i64
  %retval.sroa.0.0.insert.insert.i13 = or disjoint i64 %retval.sroa.2.0.insert.shift.i11, %retval.sroa.0.0.insert.ext.i12
  store i64 %retval.sroa.0.0.insert.insert.i, ptr %agg.result, align 4
  %ref.tmp.sroa.2.0.agg.result.sroa_idx = getelementptr inbounds i8, ptr %agg.result, i64 8
  store i32 %conv7.i, ptr %ref.tmp.sroa.2.0.agg.result.sroa_idx, align 4
  %mMax.i16 = getelementptr inbounds i8, ptr %agg.result, i64 12
  store i64 %retval.sroa.0.0.insert.insert.i13, ptr %mMax.i16, align 4
  %ref.tmp5.sroa.2.0.mMax.i16.sroa_idx = getelementptr inbounds i8, ptr %agg.result, i64 20
  store i32 %conv7.i9, ptr %ref.tmp5.sroa.2.0.mMax.i16.sroa_idx, align 4
  ret void
}